target datalayout = "e-m:e-p270:32:32-p271:32:32-p272:64:64-i64:64-i128:128-f80:128-n8:16:32:64-S128"
target triple = "x86_64-pc-linux-gnu"

%struct.rb_data_type_struct = type { ptr, %struct.anon, ptr, ptr, i64 }
%struct.anon = type { ptr, ptr, ptr, ptr, [1 x ptr] }
%struct.ripper = type { ptr, i32, %union.anon }
%union.anon = type { %struct.lex_pointer_string }
%struct.lex_pointer_string = type { i64, i64 }

@parser_data_type = internal constant %struct.rb_data_type_struct { ptr @.str.42, %struct.anon { ptr @ripper_parser_mark2, ptr @ripper_parser_free2, ptr @ripper_parser_memsize2, ptr null, [1 x ptr] zeroinitializer }, ptr null, ptr null, i64 1 }, align 8
@rb_eArgError = external global i64, align 8
@.str.45 = private unnamed_addr constant [39 x i8] c"method called for uninitialized object\00", align 1
@.str.47 = private unnamed_addr constant [30 x i8] c"Ripper#parse is not reentrant\00", align 1
@.str.48 = private unnamed_addr constant [37 x i8] c"Ripper#parse is not multithread-safe\00", align 1

; Function Attrs: inlinehint nounwind sspstrong willreturn memory(none) uwtable
define internal zeroext i1 @RB_NIL_P(i64 noundef %0) #10 {
  %2 = alloca i64, align 8
  store i64 %0, ptr %2, align 8, !tbaa !13
  %3 = load i64, ptr %2, align 8, !tbaa !13
  %4 = icmp eq i64 %3, 4
  ret i1 %4
}

; Function Attrs: nounwind sspstrong uwtable
define internal ptr @ripper_parser_params(i64 noundef %0, i1 noundef zeroext %1) #0 {
  %3 = alloca i64, align 8
  %4 = alloca i8, align 1
  %5 = alloca ptr, align 8
  %6 = alloca ptr, align 8
  store i64 %0, ptr %3, align 8, !tbaa !13
  %7 = zext i1 %1 to i8
  store i8 %7, ptr %4, align 1, !tbaa !34
  call void @llvm.lifetime.start.p0(i64 8, ptr %5) #16
  call void @llvm.lifetime.start.p0(i64 8, ptr %6) #16
  %8 = load i64, ptr %3, align 8, !tbaa !13
  %9 = call ptr @rb_check_typeddata(i64 noundef %8, ptr noundef @parser_data_type)
  store ptr %9, ptr %5, align 8, !tbaa !19
  %10 = load ptr, ptr %5, align 8, !tbaa !19
  %11 = getelementptr inbounds nuw %struct.ripper, ptr %10, i32 0, i32 0
  %12 = load ptr, ptr %11, align 8, !tbaa !21
  store ptr %12, ptr %6, align 8, !tbaa !6
  %13 = load i8, ptr %4, align 1, !tbaa !34, !range !36, !noundef !37
  %14 = trunc i8 %13 to i1
  br i1 %14, label %15, label %21

15:                                               ; preds = %2
  %16 = load ptr, ptr %6, align 8, !tbaa !6
  %17 = call i32 @rb_ruby_ripper_initialized_p(ptr noundef %16)
  %18 = icmp ne i32 %17, 0
  br i1 %18, label %21, label %19

19:                                               ; preds = %15
  %20 = load i64, ptr @rb_eArgError, align 8, !tbaa !13
  call void (i64, ptr, ...) @rb_raise(i64 noundef %20, ptr noundef @.str.45) #20
  unreachable

21:                                               ; preds = %15, %2
  %22 = load ptr, ptr %6, align 8, !tbaa !6
  call void @llvm.lifetime.end.p0(i64 8, ptr %6) #16
  call void @llvm.lifetime.end.p0(i64 8, ptr %5) #16
  ret ptr %22
}

; Function Attrs: nounwind sspstrong uwtable
define internal i64 @ripper_parse(i64 noundef %0) #0 {
  %2 = alloca i64, align 8
  %3 = alloca ptr, align 8
  %4 = alloca i64, align 8
  %5 = alloca ptr, align 8
  %6 = alloca ptr, align 8
  store i64 %0, ptr %2, align 8, !tbaa !13
  call void @llvm.lifetime.start.p0(i64 8, ptr %3) #16
  %7 = load i64, ptr %2, align 8, !tbaa !13
  %8 = call ptr @ripper_parser_params(i64 noundef %7, i1 noundef zeroext true)
  store ptr %8, ptr %3, align 8, !tbaa !6
  call void @llvm.lifetime.start.p0(i64 8, ptr %4) #16
  %9 = load ptr, ptr %3, align 8, !tbaa !6
  %10 = call i64 @rb_ruby_parser_parsing_thread(ptr noundef %9)
  %11 = call zeroext i1 @RB_NIL_P(i64 noundef %10) #19
  br i1 %11, label %21, label %12

12:                                               ; preds = %1
  %13 = load ptr, ptr %3, align 8, !tbaa !6
  %14 = call i64 @rb_ruby_parser_parsing_thread(ptr noundef %13)
  %15 = call i64 @rb_thread_current()
  %16 = icmp eq i64 %14, %15
  br i1 %16, label %17, label %19

17:                                               ; preds = %12
  %18 = load i64, ptr @rb_eArgError, align 8, !tbaa !13
  call void (i64, ptr, ...) @rb_raise(i64 noundef %18, ptr noundef @.str.47) #20
  unreachable

19:                                               ; preds = %12
  %20 = load i64, ptr @rb_eArgError, align 8, !tbaa !13
  call void (i64, ptr, ...) @rb_raise(i64 noundef %20, ptr noundef @.str.48) #20
  unreachable

21:                                               ; preds = %1
  %22 = load ptr, ptr %3, align 8, !tbaa !6
  %23 = call i64 @rb_thread_current()
  call void @rb_ruby_parser_set_parsing_thread(ptr noundef %22, i64 noundef %23)
  %24 = load i64, ptr %2, align 8, !tbaa !13
  %25 = load i64, ptr %2, align 8, !tbaa !13
  %26 = call i64 @rb_ensure(ptr noundef @ripper_parse0, i64 noundef %24, ptr noundef @ripper_ensure, i64 noundef %25)
  store i64 %26, ptr %4, align 8, !tbaa !13
  call void @llvm.lifetime.start.p0(i64 8, ptr %5) #16
  store ptr %2, ptr %5, align 8, !tbaa !15
  call void asm sideeffect "", "*m,~{dirflag},~{fpsr},~{flags}"(ptr elementtype(ptr) %5) #16, !srcloc !28
  %27 = load ptr, ptr %5, align 8, !tbaa !15
  store ptr %27, ptr %6, align 8, !tbaa !15
  call void @llvm.lifetime.end.p0(i64 8, ptr %5) #16
  %28 = load ptr, ptr %6, align 8, !tbaa !15
  %29 = load volatile i64, ptr %28, align 8, !tbaa !13
  %30 = load i64, ptr %4, align 8, !tbaa !13
  call void @llvm.lifetime.end.p0(i64 8, ptr %4) #16
  call void @llvm.lifetime.end.p0(i64 8, ptr %3) #16
  ret i64 %30
}