; Function Attrs: nounwind sspstrong uwtable
define internal i64 @ripper_parse(i64 noundef %0) #0 {
  %2 = alloca i64, align 8
  %3 = alloca ptr, align 8
  store i64 %0, ptr %2, align 8, !tbaa !6
  %4 = tail call ptr @rb_check_typeddata(i64 noundef %0, ptr noundef nonnull @parser_data_type) #5
  %5 = load ptr, ptr %4, align 8, !tbaa !18
  %6 = tail call i32 @rb_ruby_ripper_initialized_p(ptr noundef %5) #5
  %.not.i = icmp eq i32 %6, 0
  br i1 %.not.i, label %7, label %ripper_parser_params.exit

7:                                                ; preds = %1
  %8 = load i64, ptr @rb_eArgError, align 8, !tbaa !6
  tail call void (i64, ptr, ...) @rb_raise(i64 noundef %8, ptr noundef nonnull @.str.45) #6
  unreachable

ripper_parser_params.exit:                        ; preds = %1
  %9 = tail call i64 @rb_ruby_parser_parsing_thread(ptr noundef %5) #5
  %10 = icmp eq i64 %9, 4
  br i1 %10, label %18, label %11

11:                                               ; preds = %ripper_parser_params.exit
  %12 = tail call i64 @rb_ruby_parser_parsing_thread(ptr noundef %5) #5
  %13 = tail call i64 @rb_thread_current() #5
  %14 = icmp eq i64 %12, %13
  %15 = load i64, ptr @rb_eArgError, align 8, !tbaa !6
  br i1 %14, label %16, label %17

16:                                               ; preds = %11
  tail call void (i64, ptr, ...) @rb_raise(i64 noundef %15, ptr noundef nonnull @.str.47) #6
  unreachable

17:                                               ; preds = %11
  tail call void (i64, ptr, ...) @rb_raise(i64 noundef %15, ptr noundef nonnull @.str.48) #6
  unreachable

18:                                               ; preds = %ripper_parser_params.exit
  %19 = tail call i64 @rb_thread_current() #5
  tail call void @rb_ruby_parser_set_parsing_thread(ptr noundef %5, i64 noundef %19) #5
  %20 = tail call i64 @rb_ensure(ptr noundef nonnull @ripper_parse0, i64 noundef %0, ptr noundef nonnull @ripper_ensure, i64 noundef %0) #5
  call void @llvm.lifetime.start.p0(i64 8, ptr nonnull %3) #5
  store ptr %2, ptr %3, align 8, !tbaa !22
  call void asm sideeffect "", "*m,~{dirflag},~{fpsr},~{flags}"(ptr nonnull elementtype(ptr) %3) #5, !srcloc !31
  %21 = load ptr, ptr %3, align 8, !tbaa !22
  call void @llvm.lifetime.end.p0(i64 8, ptr nonnull %3) #5
  %22 = load volatile i64, ptr %21, align 8, !tbaa !6
  ret i64 %20
}